target datalayout = "e-m:e-p270:32:32-p271:32:32-p272:64:64-i64:64-i128:128-f80:128-n8:16:32:64-S128"
target triple = "x86_64-pc-linux-gnu"

%struct.KINMemRec = type { double, ptr, ptr, double, double, i32, i32, i64, i64, i64, i64, i32, i32, i32, i32, i32, i32, i32, i32, i32, double, double, double, double, double, double, double, double, double, i32, double, i64, i64, i64, i64, i64, i64, i64, ptr, ptr, ptr, ptr, ptr, ptr, ptr, ptr, ptr, ptr, ptr, ptr, ptr, ptr, ptr, ptr, ptr, ptr, i64, i32, i32, i64, i64, i64, i64, ptr, ptr, ptr, ptr, i32, ptr, double, double, double, double, double, i32, double, double, double, i32, ptr, ptr, ptr, ptr, ptr, ptr }

@.str = private unnamed_addr constant [7 x i8] c"KINSOL\00", align 1
@.str.2 = private unnamed_addr constant [27 x i8] c"kinsol_mem = NULL illegal.\00", align 1
@.str.9 = private unnamed_addr constant [10 x i8] c"KINSetMAA\00", align 1
@.str.10 = private unnamed_addr constant [17 x i8] c"maa < 0 illegal.\00", align 1

; Function Attrs: nounwind uwtable
define i32 @KINSetMAA(ptr noundef %0, i64 noundef %1) #0 {
  %3 = alloca i32, align 4
  %4 = alloca ptr, align 8
  %5 = alloca i64, align 8
  %6 = alloca ptr, align 8
  store ptr %0, ptr %4, align 8
  store i64 %1, ptr %5, align 8
  %7 = load ptr, ptr %4, align 8
  %8 = icmp eq ptr %7, null
  br i1 %8, label %9, label %10

9:                                                ; preds = %2
  call void (ptr, i32, ptr, ptr, ptr, ...) @KINProcessError(ptr noundef null, i32 noundef -1, ptr noundef @.str, ptr noundef @.str.9, ptr noundef @.str.2)
  store i32 -1, ptr %3, align 4
  br label %35

10:                                               ; preds = %2
  %11 = load ptr, ptr %4, align 8
  store ptr %11, ptr %6, align 8
  %12 = load i64, ptr %5, align 8
  %13 = icmp slt i64 %12, 0
  br i1 %13, label %14, label %15

14:                                               ; preds = %10
  call void (ptr, i32, ptr, ptr, ptr, ...) @KINProcessError(ptr noundef null, i32 noundef -2, ptr noundef @.str, ptr noundef @.str.9, ptr noundef @.str.10)
  store i32 -2, ptr %3, align 4
  br label %35

15:                                               ; preds = %10
  %16 = load i64, ptr %5, align 8
  %17 = load ptr, ptr %6, align 8
  %18 = getelementptr inbounds %struct.KINMemRec, ptr %17, i32 0, i32 7
  %19 = load i64, ptr %18, align 8
  %20 = icmp sgt i64 %16, %19
  br i1 %20, label %21, label %25

21:                                               ; preds = %15
  %22 = load ptr, ptr %6, align 8
  %23 = getelementptr inbounds %struct.KINMemRec, ptr %22, i32 0, i32 7
  %24 = load i64, ptr %23, align 8
  store i64 %24, ptr %5, align 8
  br label %25

25:                                               ; preds = %21, %15
  %26 = load ptr, ptr %4, align 8
  store ptr %26, ptr %6, align 8
  %27 = load i64, ptr %5, align 8
  %28 = load ptr, ptr %6, align 8
  %29 = getelementptr inbounds %struct.KINMemRec, ptr %28, i32 0, i32 56
  store i64 %27, ptr %29, align 8
  %30 = load i64, ptr %5, align 8
  %31 = icmp eq i64 %30, 0
  %32 = select i1 %31, i32 0, i32 1
  %33 = load ptr, ptr %6, align 8
  %34 = getelementptr inbounds %struct.KINMemRec, ptr %33, i32 0, i32 57
  store i32 %32, ptr %34, align 8
  store i32 0, ptr %3, align 4
  br label %35

35:                                               ; preds = %25, %14, %9
  %36 = load i32, ptr %3, align 4
  ret i32 %36
}