; Function Attrs: nounwind uwtable
define range(i32 -2, 1) i32 @KINSetMAA(ptr noundef %0, i64 noundef %1) local_unnamed_addr #0 {
  %3 = icmp eq ptr %0, null
  br i1 %3, label %4, label %5

4:                                                ; preds = %2
  tail call void (ptr, i32, ptr, ptr, ptr, ...) @KINProcessError(ptr noundef null, i32 noundef -1, ptr noundef nonnull @.str, ptr noundef nonnull @.str.9, ptr noundef nonnull @.str.2) #6
  br label %15

5:                                                ; preds = %2
  %6 = icmp slt i64 %1, 0
  br i1 %6, label %7, label %8

7:                                                ; preds = %5
  tail call void (ptr, i32, ptr, ptr, ptr, ...) @KINProcessError(ptr noundef null, i32 noundef -2, ptr noundef nonnull @.str, ptr noundef nonnull @.str.9, ptr noundef nonnull @.str.10) #6
  br label %15

8:                                                ; preds = %5
  %9 = getelementptr inbounds nuw i8, ptr %0, i64 48
  %10 = load i64, ptr %9, align 8
  %spec.select = tail call i64 @llvm.smin.i64(i64 %1, i64 %10)
  %11 = getelementptr inbounds nuw i8, ptr %0, i64 408
  store i64 %spec.select, ptr %11, align 8
  %12 = icmp ne i64 %spec.select, 0
  %13 = zext i1 %12 to i32
  %14 = getelementptr inbounds nuw i8, ptr %0, i64 416
  store i32 %13, ptr %14, align 8
  br label %15

15:                                               ; preds = %8, %7, %4
  %.011 = phi i32 [ -1, %4 ], [ -2, %7 ], [ 0, %8 ]
  ret i32 %.011
}